; Function Attrs: mustprogress nofree norecurse nosync nounwind willreturn memory(read, inaccessiblemem: none) uwtable
define hidden noundef range(i64 -288230376151711744, 288230376151711744) i64 @_ZNK19OpenColorIO_v2_5dev24ColorSpaceMenuHelperImpl21getNumHierarchyLevelsEm(ptr noundef nonnull readonly align 8 captures(none) dereferenceable(216) %0, i64 noundef %1) unnamed_addr #9 align 2 {
  %3 = getelementptr inbounds nuw i8, ptr %0, i64 192
  %4 = getelementptr inbounds nuw i8, ptr %0, i64 200
  %5 = load ptr, ptr %4, align 8, !tbaa !156
  %6 = load ptr, ptr %3, align 8, !tbaa !153
  %7 = ptrtoint ptr %5 to i64
  %8 = ptrtoint ptr %6 to i64
  %9 = sub i64 %7, %8
  %10 = ashr exact i64 %9, 4
  %11 = icmp ult i64 %1, %10
  br i1 %11, label %12, label %23

12:                                               ; preds = %2
  %13 = getelementptr inbounds nuw %"class.std::shared_ptr", ptr %6, i64 %1
  %14 = load ptr, ptr %13, align 8, !tbaa !3
  %15 = getelementptr inbounds nuw i8, ptr %14, i64 136
  %16 = getelementptr inbounds nuw i8, ptr %14, i64 144
  %17 = load ptr, ptr %16, align 8, !tbaa !68
  %18 = load ptr, ptr %15, align 8, !tbaa !65
  %19 = ptrtoint ptr %17 to i64
  %20 = ptrtoint ptr %18 to i64
  %21 = sub i64 %19, %20
  %22 = ashr exact i64 %21, 5
  br label %23

23:                                               ; preds = %2, %12
  %.0 = phi i64 [ %22, %12 ], [ 0, %2 ]
  ret i64 %.0
}